; Function Attrs: nofree nounwind uwtable
define void @Abc_AigCheckFaninOrder(ptr noundef readonly captures(none) %0) local_unnamed_addr #9 {
  %2 = getelementptr inbounds nuw i8, ptr %0, i64 24
  %3 = load i32, ptr %2, align 8
  %4 = icmp sgt i32 %3, 0
  br i1 %4, label %.lr.ph21, label %._crit_edge22

.lr.ph21:                                         ; preds = %1
  %5 = getelementptr inbounds nuw i8, ptr %0, i64 16
  br label %6

6:                                                ; preds = %.lr.ph21, %._crit_edge
  %7 = phi i32 [ %3, %.lr.ph21 ], [ %37, %._crit_edge ]
  %indvars.iv = phi i64 [ 0, %.lr.ph21 ], [ %indvars.iv.next, %._crit_edge ]
  %8 = load ptr, ptr %5, align 8
  %9 = getelementptr inbounds nuw ptr, ptr %8, i64 %indvars.iv
  %.0916 = load ptr, ptr %9, align 8
  %.not17 = icmp eq ptr %.0916, null
  br i1 %.not17, label %._crit_edge, label %.lr.ph

.lr.ph:                                           ; preds = %6, %35
  %.0918 = phi ptr [ %.09, %35 ], [ %.0916, %6 ]
  %.val.i = load ptr, ptr %.0918, align 8
  %10 = getelementptr i8, ptr %.0918, i64 32
  %.val2.i = load ptr, ptr %10, align 8
  %11 = getelementptr i8, ptr %.val.i, i64 32
  %.val.val.i = load ptr, ptr %11, align 8
  %.val2.val.i = load i32, ptr %.val2.i, align 4
  %12 = getelementptr i8, ptr %.val.val.i, i64 8
  %.val.val.val.i = load ptr, ptr %12, align 8
  %13 = sext i32 %.val2.val.i to i64
  %14 = getelementptr inbounds ptr, ptr %.val.val.val.i, i64 %13
  %15 = load ptr, ptr %14, align 8
  %16 = ptrtoint ptr %15 to i64
  %17 = and i64 %16, -2
  %18 = inttoptr i64 %17 to ptr
  %19 = getelementptr inbounds nuw i8, ptr %18, i64 16
  %20 = load i32, ptr %19, align 8
  %21 = getelementptr i8, ptr %.val2.i, i64 4
  %.val2.val.i13 = load i32, ptr %21, align 4
  %22 = sext i32 %.val2.val.i13 to i64
  %23 = getelementptr inbounds ptr, ptr %.val.val.val.i, i64 %22
  %24 = load ptr, ptr %23, align 8
  %25 = ptrtoint ptr %24 to i64
  %26 = and i64 %25, -2
  %27 = inttoptr i64 %26 to ptr
  %28 = getelementptr inbounds nuw i8, ptr %27, i64 16
  %29 = load i32, ptr %28, align 8
  %30 = icmp sgt i32 %20, %29
  br i1 %30, label %31, label %35

31:                                               ; preds = %.lr.ph
  %32 = getelementptr inbounds nuw i8, ptr %.0918, i64 16
  %33 = load i32, ptr %32, align 8
  %34 = tail call i32 (ptr, ...) @printf(ptr noundef nonnull dereferenceable(1) @.str.17, i32 noundef %33)
  br label %35

35:                                               ; preds = %.lr.ph, %31
  %36 = getelementptr inbounds nuw i8, ptr %.0918, i64 8
  %.09 = load ptr, ptr %36, align 8
  %.not = icmp eq ptr %.09, null
  br i1 %.not, label %._crit_edge.loopexit, label %.lr.ph, !llvm.loop !47

._crit_edge.loopexit:                             ; preds = %35
  %.pre = load i32, ptr %2, align 8
  br label %._crit_edge

._crit_edge:                                      ; preds = %._crit_edge.loopexit, %6
  %37 = phi i32 [ %.pre, %._crit_edge.loopexit ], [ %7, %6 ]
  %indvars.iv.next = add nuw nsw i64 %indvars.iv, 1
  %38 = sext i32 %37 to i64
  %39 = icmp slt i64 %indvars.iv.next, %38
  br i1 %39, label %6, label %._crit_edge22, !llvm.loop !48

._crit_edge22:                                    ; preds = %._crit_edge, %1
  ret void
}